; Function Attrs: mustprogress nounwind uwtable
define hidden void @_ZN6hermes3sem17SemanticValidator5visitEPNS_6ESTree16ForStatementNodeE(ptr noundef nonnull align 8 dereferenceable(168) %this, ptr noundef initializes((48, 52)) %loop) local_unnamed_addr #0 align 2 {
entry:
  %add.ptr = getelementptr inbounds nuw i8, ptr %loop, i64 48
  %funcCtx_.i = getelementptr inbounds nuw i8, ptr %this, i64 152
  %0 = load ptr, ptr %funcCtx_.i, align 8
  %semInfo.i = getelementptr inbounds nuw i8, ptr %0, i64 32
  %1 = load ptr, ptr %semInfo.i, align 8
  %labelCount.i.i = getelementptr inbounds nuw i8, ptr %1, i64 308
  %2 = load i32, ptr %labelCount.i.i, align 4
  %inc.i.i = add i32 %2, 1
  store i32 %inc.i.i, ptr %labelCount.i.i, align 4
  store i32 %2, ptr %add.ptr, align 4
  %3 = load ptr, ptr %funcCtx_.i, align 8
  %activeLoop = getelementptr inbounds nuw i8, ptr %3, i64 64
  %4 = load ptr, ptr %activeLoop, align 8
  store ptr %loop, ptr %activeLoop, align 8
  %5 = load ptr, ptr %funcCtx_.i, align 8
  %activeSwitchOrLoop = getelementptr inbounds nuw i8, ptr %5, i64 72
  %6 = load ptr, ptr %activeSwitchOrLoop, align 8
  store ptr %loop, ptr %activeSwitchOrLoop, align 8
  %_init.i = getelementptr inbounds nuw i8, ptr %loop, i64 56
  %7 = load ptr, ptr %_init.i, align 8
  %call.i = tail call { ptr, i8 } @_ZN6hermes6ESTree24RecursiveVisitorDispatchINS_3sem17SemanticValidatorELb1EE5visitERS3_PNS0_4NodeES7_(ptr noundef nonnull align 8 dereferenceable(168) %this, ptr noundef %7, ptr noundef %loop)
  %_test.i = getelementptr inbounds nuw i8, ptr %loop, i64 64
  %8 = load ptr, ptr %_test.i, align 8
  %call1.i = tail call { ptr, i8 } @_ZN6hermes6ESTree24RecursiveVisitorDispatchINS_3sem17SemanticValidatorELb1EE5visitERS3_PNS0_4NodeES7_(ptr noundef nonnull align 8 dereferenceable(168) %this, ptr noundef %8, ptr noundef %loop)
  %_update.i = getelementptr inbounds nuw i8, ptr %loop, i64 72
  %9 = load ptr, ptr %_update.i, align 8
  %call3.i = tail call { ptr, i8 } @_ZN6hermes6ESTree24RecursiveVisitorDispatchINS_3sem17SemanticValidatorELb1EE5visitERS3_PNS0_4NodeES7_(ptr noundef nonnull align 8 dereferenceable(168) %this, ptr noundef %9, ptr noundef %loop)
  %_body.i = getelementptr inbounds nuw i8, ptr %loop, i64 80
  %10 = load ptr, ptr %_body.i, align 8
  %call5.i = tail call { ptr, i8 } @_ZN6hermes6ESTree24RecursiveVisitorDispatchINS_3sem17SemanticValidatorELb1EE5visitERS3_PNS0_4NodeES7_(ptr noundef nonnull align 8 dereferenceable(168) %this, ptr noundef %10, ptr noundef %loop)
  store ptr %6, ptr %activeSwitchOrLoop, align 8
  store ptr %4, ptr %activeLoop, align 8
  ret void
}